; Function Attrs: nounwind uwtable
define internal void @dissect_timing_info_period_value(ptr noundef %0, ptr noundef %1) #0 {
  %3 = alloca i32, align 4
  %4 = load i32, ptr @hf_nfapi_timing_info_period, align 4
  %5 = call ptr @ptvcursor_add_ret_uint(ptr noundef %0, i32 noundef %4, i32 noundef 1, i32 noundef 0, ptr noundef nonnull %3) #7
  %6 = load i32, ptr %3, align 4
  %7 = add i32 %6, -1
  %or.cond = icmp ult i32 %7, 255
  br i1 %or.cond, label %10, label %8

8:                                                ; preds = %2
  %9 = call ptr (ptr, ptr, ptr, ptr, ...) @expert_add_info_format(ptr noundef %1, ptr noundef %5, ptr noundef nonnull @ei_invalid_range, ptr noundef nonnull @.str.1843) #7
  br label %10

10:                                               ; preds = %2, %8
  ret void
}